target datalayout = "e-m:e-p270:32:32-p271:32:32-p272:64:64-i64:64-i128:128-f80:128-n8:16:32:64-S128"
target triple = "x86_64-pc-linux-gnu"

%struct.sockaddr_storage = type { i16, [118 x i8], i64 }
%struct.AVFormatContext = type { ptr, ptr, ptr, ptr, ptr, i32, i32, ptr, i32, ptr, i32, ptr, ptr, i64, i64, i64, i32, i32, i32, i64, i64, ptr, i32, i32, ptr, i32, i32, i32, i32, ptr, i64, i32, i32, %struct.AVIOInterruptCB, i32, i32, i32, i32, i64, i32, i32, i32, i32, i32, i32, i32, i32, i32, i32, i32, i32, i64, i32, i32, i32, i32, i32, ptr, ptr, ptr, ptr, i32, ptr, ptr, ptr, ptr, i32, ptr, ptr, i64, ptr, ptr, ptr, i64 }
%struct.AVIOInterruptCB = type { ptr, ptr }
%struct.RTSPState = type { ptr, ptr, i32, ptr, i32, i64, i32, [512 x i8], i32, i64, i32, i32, i32, [64 x i8], [128 x i8], %struct.HTTPAuthState, [2048 x i8], ptr, i32, ptr, ptr, [1024 x i8], ptr, i64, [4096 x i8], ptr, i32, i32, ptr, i32, i32, ptr, i32, i64, ptr, i32, i32, i32, i32, i32, i32, i32, i32, i32, i32, i64, i32, ptr, [4 x i8], i32, i32, ptr }
%struct.HTTPAuthState = type { i32, [200 x i8], %struct.DigestParams, i32 }
%struct.DigestParams = type { [300 x i8], [10 x i8], [30 x i8], [300 x i8], [10 x i8], i32 }
%struct.RTSPStream = type { ptr, ptr, i32, i32, i32, [4096 x i8], i32, %struct.sockaddr_storage, i32, ptr, i32, ptr, i32, i32, ptr, ptr, i32, i32, [40 x i8], [100 x i8] }

; Function Attrs: inlinehint nounwind uwtable
define internal i32 @ffurl_write(ptr noundef %0, ptr noundef %1, i32 noundef %2) #5 {
  %4 = alloca ptr, align 8
  %5 = alloca ptr, align 8
  %6 = alloca i32, align 4
  store ptr %0, ptr %4, align 8, !tbaa !80
  store ptr %1, ptr %5, align 8, !tbaa !9
  store i32 %2, ptr %6, align 4, !tbaa !38
  %7 = load ptr, ptr %4, align 8, !tbaa !80
  %8 = load ptr, ptr %5, align 8, !tbaa !9
  %9 = load i32, ptr %6, align 4, !tbaa !38
  %10 = call i32 @ffurl_write2(ptr noundef %7, ptr noundef %8, i32 noundef %9)
  ret i32 %10
}

; Function Attrs: alwaysinline nounwind willreturn memory(none) uwtable
define internal zeroext i16 @av_bswap16(i16 noundef zeroext %0) #6 {
  %2 = alloca i16, align 2
  store i16 %0, ptr %2, align 2, !tbaa !79
  %3 = load i16, ptr %2, align 2, !tbaa !79
  %4 = zext i16 %3 to i32
  %5 = ashr i32 %4, 8
  %6 = load i16, ptr %2, align 2, !tbaa !79
  %7 = zext i16 %6 to i32
  %8 = shl i32 %7, 8
  %9 = or i32 %5, %8
  %10 = trunc i32 %9 to i16
  store i16 %10, ptr %2, align 2, !tbaa !79
  %11 = load i16, ptr %2, align 2, !tbaa !79
  ret i16 %11
}

; Function Attrs: alwaysinline nounwind willreturn memory(none) uwtable
define internal i32 @av_bswap32(i32 noundef %0) #6 {
  %2 = alloca i32, align 4
  store i32 %0, ptr %2, align 4, !tbaa !38
  %3 = load i32, ptr %2, align 4, !tbaa !38
  %4 = shl i32 %3, 8
  %5 = and i32 %4, 65280
  %6 = load i32, ptr %2, align 4, !tbaa !38
  %7 = lshr i32 %6, 8
  %8 = and i32 %7, 255
  %9 = or i32 %5, %8
  %10 = shl i32 %9, 16
  %11 = load i32, ptr %2, align 4, !tbaa !38
  %12 = lshr i32 %11, 16
  %13 = shl i32 %12, 8
  %14 = and i32 %13, 65280
  %15 = load i32, ptr %2, align 4, !tbaa !38
  %16 = lshr i32 %15, 16
  %17 = lshr i32 %16, 8
  %18 = and i32 %17, 255
  %19 = or i32 %14, %18
  %20 = or i32 %10, %19
  ret i32 %20
}

; Function Attrs: nounwind uwtable
define i32 @ff_rtsp_tcp_write_packet(ptr noundef %0, ptr noundef %1) #0 {
  %3 = alloca ptr, align 8
  %4 = alloca ptr, align 8
  %5 = alloca ptr, align 8
  %6 = alloca ptr, align 8
  %7 = alloca ptr, align 8
  %8 = alloca ptr, align 8
  %9 = alloca i32, align 4
  %10 = alloca ptr, align 8
  %11 = alloca ptr, align 8
  %12 = alloca i32, align 4
  %13 = alloca i32, align 4
  %14 = alloca i32, align 4
  store ptr %0, ptr %3, align 8, !tbaa !4
  store ptr %1, ptr %4, align 8, !tbaa !50
  call void @llvm.lifetime.start.p0(i64 8, ptr %5) #8
  %15 = load ptr, ptr %3, align 8, !tbaa !4
  %16 = getelementptr inbounds nuw %struct.AVFormatContext, ptr %15, i32 0, i32 3
  %17 = load ptr, ptr %16, align 8, !tbaa !11
  store ptr %17, ptr %5, align 8, !tbaa !27
  call void @llvm.lifetime.start.p0(i64 8, ptr %6) #8
  %18 = load ptr, ptr %4, align 8, !tbaa !50
  %19 = getelementptr inbounds nuw %struct.RTSPStream, ptr %18, i32 0, i32 1
  %20 = load ptr, ptr %19, align 8, !tbaa !65
  store ptr %20, ptr %6, align 8, !tbaa !4
  call void @llvm.lifetime.start.p0(i64 8, ptr %7) #8
  call void @llvm.lifetime.start.p0(i64 8, ptr %8) #8
  call void @llvm.lifetime.start.p0(i64 4, ptr %9) #8
  call void @llvm.lifetime.start.p0(i64 8, ptr %10) #8
  call void @llvm.lifetime.start.p0(i64 8, ptr %11) #8
  %21 = load ptr, ptr %6, align 8, !tbaa !4
  %22 = getelementptr inbounds nuw %struct.AVFormatContext, ptr %21, i32 0, i32 4
  %23 = load ptr, ptr %22, align 8, !tbaa !66
  %24 = call i32 @avio_close_dyn_buf(ptr noundef %23, ptr noundef %7)
  store i32 %24, ptr %9, align 4, !tbaa !38
  %25 = load ptr, ptr %6, align 8, !tbaa !4
  %26 = getelementptr inbounds nuw %struct.AVFormatContext, ptr %25, i32 0, i32 4
  store ptr null, ptr %26, align 8, !tbaa !66
  %27 = load ptr, ptr %7, align 8, !tbaa !9
  store ptr %27, ptr %8, align 8, !tbaa !9
  br label %28

28:                                               ; preds = %107, %2
  %29 = load i32, ptr %9, align 4, !tbaa !38
  %30 = icmp sgt i32 %29, 4
  br i1 %30, label %31, label %108

31:                                               ; preds = %28
  call void @llvm.lifetime.start.p0(i64 4, ptr %12) #8
  %32 = load ptr, ptr %8, align 8, !tbaa !9
  %33 = load i32, ptr %32, align 1, !tbaa !67
  %34 = call i32 @av_bswap32(i32 noundef %33) #10
  store i32 %34, ptr %12, align 4, !tbaa !38
  call void @llvm.lifetime.start.p0(i64 4, ptr %13) #8
  %35 = load ptr, ptr %8, align 8, !tbaa !9
  store ptr %35, ptr %10, align 8, !tbaa !9
  store ptr %35, ptr %11, align 8, !tbaa !9
  %36 = load ptr, ptr %8, align 8, !tbaa !9
  %37 = getelementptr inbounds i8, ptr %36, i64 4
  store ptr %37, ptr %8, align 8, !tbaa !9
  %38 = load i32, ptr %9, align 4, !tbaa !38
  %39 = sub nsw i32 %38, 4
  store i32 %39, ptr %9, align 4, !tbaa !38
  %40 = load i32, ptr %12, align 4, !tbaa !38
  %41 = load i32, ptr %9, align 4, !tbaa !38
  %42 = icmp ugt i32 %40, %41
  br i1 %42, label %46, label %43

43:                                               ; preds = %31
  %44 = load i32, ptr %12, align 4, !tbaa !38
  %45 = icmp ult i32 %44, 2
  br i1 %45, label %46, label %47

46:                                               ; preds = %43, %31
  store i32 3, ptr %14, align 4
  br label %105

47:                                               ; preds = %43
  %48 = load ptr, ptr %8, align 8, !tbaa !9
  %49 = getelementptr inbounds i8, ptr %48, i64 1
  %50 = load i8, ptr %49, align 1, !tbaa !67
  %51 = zext i8 %50 to i32
  %52 = icmp sge i32 %51, 192
  br i1 %52, label %53, label %59

53:                                               ; preds = %47
  %54 = load ptr, ptr %8, align 8, !tbaa !9
  %55 = getelementptr inbounds i8, ptr %54, i64 1
  %56 = load i8, ptr %55, align 1, !tbaa !67
  %57 = zext i8 %56 to i32
  %58 = icmp sle i32 %57, 195
  br i1 %58, label %71, label %59

59:                                               ; preds = %53, %47
  %60 = load ptr, ptr %8, align 8, !tbaa !9
  %61 = getelementptr inbounds i8, ptr %60, i64 1
  %62 = load i8, ptr %61, align 1, !tbaa !67
  %63 = zext i8 %62 to i32
  %64 = icmp sge i32 %63, 200
  br i1 %64, label %65, label %75

65:                                               ; preds = %59
  %66 = load ptr, ptr %8, align 8, !tbaa !9
  %67 = getelementptr inbounds i8, ptr %66, i64 1
  %68 = load i8, ptr %67, align 1, !tbaa !67
  %69 = zext i8 %68 to i32
  %70 = icmp sle i32 %69, 210
  br i1 %70, label %71, label %75

71:                                               ; preds = %65, %53
  %72 = load ptr, ptr %4, align 8, !tbaa !50
  %73 = getelementptr inbounds nuw %struct.RTSPStream, ptr %72, i32 0, i32 4
  %74 = load i32, ptr %73, align 8, !tbaa !68
  store i32 %74, ptr %13, align 4, !tbaa !38
  br label %79

75:                                               ; preds = %65, %59
  %76 = load ptr, ptr %4, align 8, !tbaa !50
  %77 = getelementptr inbounds nuw %struct.RTSPStream, ptr %76, i32 0, i32 3
  %78 = load i32, ptr %77, align 4, !tbaa !69
  store i32 %78, ptr %13, align 4, !tbaa !38
  br label %79

79:                                               ; preds = %75, %71
  %80 = load ptr, ptr %10, align 8, !tbaa !9
  %81 = getelementptr inbounds i8, ptr %80, i64 0
  store i8 36, ptr %81, align 1, !tbaa !67
  %82 = load i32, ptr %13, align 4, !tbaa !38
  %83 = trunc i32 %82 to i8
  %84 = load ptr, ptr %10, align 8, !tbaa !9
  %85 = getelementptr inbounds i8, ptr %84, i64 1
  store i8 %83, ptr %85, align 1, !tbaa !67
  %86 = load i32, ptr %12, align 4, !tbaa !38
  %87 = trunc i32 %86 to i16
  %88 = call zeroext i16 @av_bswap16(i16 noundef zeroext %87) #10
  %89 = load ptr, ptr %10, align 8, !tbaa !9
  %90 = getelementptr inbounds i8, ptr %89, i64 2
  store i16 %88, ptr %90, align 1, !tbaa !67
  %91 = load ptr, ptr %5, align 8, !tbaa !27
  %92 = getelementptr inbounds nuw %struct.RTSPState, ptr %91, i32 0, i32 28
  %93 = load ptr, ptr %92, align 8, !tbaa !70
  %94 = load ptr, ptr %11, align 8, !tbaa !9
  %95 = load i32, ptr %12, align 4, !tbaa !38
  %96 = add i32 4, %95
  %97 = call i32 @ffurl_write(ptr noundef %93, ptr noundef %94, i32 noundef %96)
  %98 = load i32, ptr %12, align 4, !tbaa !38
  %99 = load ptr, ptr %8, align 8, !tbaa !9
  %100 = zext i32 %98 to i64
  %101 = getelementptr inbounds nuw i8, ptr %99, i64 %100
  store ptr %101, ptr %8, align 8, !tbaa !9
  %102 = load i32, ptr %12, align 4, !tbaa !38
  %103 = load i32, ptr %9, align 4, !tbaa !38
  %104 = sub i32 %103, %102
  store i32 %104, ptr %9, align 4, !tbaa !38
  store i32 0, ptr %14, align 4
  br label %105

105:                                              ; preds = %79, %46
  call void @llvm.lifetime.end.p0(i64 4, ptr %13) #8
  call void @llvm.lifetime.end.p0(i64 4, ptr %12) #8
  %106 = load i32, ptr %14, align 4
  switch i32 %106, label %116 [
    i32 0, label %107
    i32 3, label %108
  ]

107:                                              ; preds = %105
  br label %28, !llvm.loop !77

108:                                              ; preds = %105, %28
  %109 = load ptr, ptr %7, align 8, !tbaa !9
  call void @av_free(ptr noundef %109)
  %110 = load ptr, ptr %6, align 8, !tbaa !4
  %111 = getelementptr inbounds nuw %struct.AVFormatContext, ptr %110, i32 0, i32 4
  %112 = load ptr, ptr %5, align 8, !tbaa !27
  %113 = getelementptr inbounds nuw %struct.RTSPState, ptr %112, i32 0, i32 50
  %114 = load i32, ptr %113, align 8, !tbaa !78
  %115 = call i32 @ffio_open_dyn_packet_buf(ptr noundef %111, i32 noundef %114)
  store i32 1, ptr %14, align 4
  call void @llvm.lifetime.end.p0(i64 8, ptr %11) #8
  call void @llvm.lifetime.end.p0(i64 8, ptr %10) #8
  call void @llvm.lifetime.end.p0(i64 4, ptr %9) #8
  call void @llvm.lifetime.end.p0(i64 8, ptr %8) #8
  call void @llvm.lifetime.end.p0(i64 8, ptr %7) #8
  call void @llvm.lifetime.end.p0(i64 8, ptr %6) #8
  call void @llvm.lifetime.end.p0(i64 8, ptr %5) #8
  ret i32 %115

116:                                              ; preds = %105
  unreachable
}